target datalayout = "e-m:e-p270:32:32-p271:32:32-p272:64:64-i64:64-i128:128-f80:128-n8:16:32:64-S128"
target triple = "x86_64-pc-linux-gnu"

%struct.AVFormatContext = type { ptr, ptr, ptr, ptr, ptr, i32, i32, ptr, i32, ptr, i32, ptr, ptr, i64, i64, i64, i32, i32, i32, i64, i64, ptr, i32, i32, ptr, i32, i32, i32, i32, ptr, i64, i32, i32, %struct.AVIOInterruptCB, i32, i32, i32, i32, i64, i32, i32, i32, i32, i32, i32, i32, i32, i32, i32, i32, i32, i64, i32, i32, i32, i32, i32, ptr, ptr, ptr, ptr, i32, ptr, ptr, ptr, ptr, i32, ptr, ptr, i64, ptr, ptr, ptr, i64 }
%struct.AVIOInterruptCB = type { ptr, ptr }
%struct.FBDevContext = type { ptr, i32, i32, %struct.fb_var_screeninfo, %struct.fb_fix_screeninfo, i32, ptr }
%struct.fb_var_screeninfo = type { i32, i32, i32, i32, i32, i32, i32, i32, %struct.fb_bitfield, %struct.fb_bitfield, %struct.fb_bitfield, %struct.fb_bitfield, i32, i32, i32, i32, i32, i32, i32, i32, i32, i32, i32, i32, i32, i32, i32, i32, [4 x i32] }
%struct.fb_bitfield = type { i32, i32, i32 }
%struct.fb_fix_screeninfo = type { [16 x i8], i64, i32, i32, i32, i32, i16, i16, i16, i32, i64, i32, i32, i16, [2 x i16] }

; Function Attrs: cold nounwind optsize uwtable
define internal i32 @fbdev_write_trailer(ptr noundef %0) #0 {
  %2 = alloca ptr, align 8
  %3 = alloca ptr, align 8
  store ptr %0, ptr %2, align 8, !tbaa !4
  call void @llvm.lifetime.start.p0(i64 8, ptr %3) #9
  %4 = load ptr, ptr %2, align 8, !tbaa !4
  %5 = getelementptr inbounds nuw %struct.AVFormatContext, ptr %4, i32 0, i32 3
  %6 = load ptr, ptr %5, align 8, !tbaa !9
  store ptr %6, ptr %3, align 8, !tbaa !26
  %7 = load ptr, ptr %3, align 8, !tbaa !26
  %8 = getelementptr inbounds nuw %struct.FBDevContext, ptr %7, i32 0, i32 6
  %9 = load ptr, ptr %8, align 8, !tbaa !52
  %10 = load ptr, ptr %3, align 8, !tbaa !26
  %11 = getelementptr inbounds nuw %struct.FBDevContext, ptr %10, i32 0, i32 4
  %12 = getelementptr inbounds nuw %struct.fb_fix_screeninfo, ptr %11, i32 0, i32 2
  %13 = load i32, ptr %12, align 8, !tbaa !51
  %14 = zext i32 %13 to i64
  %15 = call i32 @munmap(ptr noundef %9, i64 noundef %14) #9
  %16 = load ptr, ptr %3, align 8, !tbaa !26
  %17 = getelementptr inbounds nuw %struct.FBDevContext, ptr %16, i32 0, i32 5
  %18 = load i32, ptr %17, align 8, !tbaa !45
  %19 = call i32 @close(i32 noundef %18)
  call void @llvm.lifetime.end.p0(i64 8, ptr %3) #9
  ret i32 0
}