; Function Attrs: cold nounwind optsize uwtable
define internal noundef i32 @fbdev_write_trailer(ptr noundef readonly captures(none) %0) #0 {
  %2 = getelementptr inbounds nuw i8, ptr %0, i64 24
  %3 = load ptr, ptr %2, align 8, !tbaa !4
  %4 = getelementptr inbounds nuw i8, ptr %3, i64 264
  %5 = load ptr, ptr %4, align 8, !tbaa !48
  %6 = getelementptr inbounds nuw i8, ptr %3, i64 200
  %7 = load i32, ptr %6, align 8, !tbaa !47
  %8 = zext i32 %7 to i64
  %9 = tail call i32 @munmap(ptr noundef %5, i64 noundef %8) #8
  %10 = getelementptr inbounds nuw i8, ptr %3, i64 256
  %11 = load i32, ptr %10, align 8, !tbaa !40
  %12 = tail call i32 @close(i32 noundef %11) #8
  ret i32 0
}